target datalayout = "e-m:e-p270:32:32-p271:32:32-p272:64:64-i64:64-i128:128-f80:128-n8:16:32:64-S128"
target triple = "x86_64-pc-linux-gnu"

%struct._archiveHandle = type { %struct.Archive, i32, ptr, ptr, i64, i64, i32, %struct.sqlparseInfo, i64, i32, ptr, i64, i64, i64, ptr, ptr, ptr, ptr, ptr, ptr, ptr, ptr, ptr, ptr, ptr, ptr, ptr, ptr, ptr, ptr, ptr, ptr, ptr, ptr, ptr, ptr, ptr, ptr, ptr, ptr, ptr, ptr, ptr, ptr, i32, i32, i8, i32, i8, i32, ptr, ptr, ptr, ptr, i32, i32, ptr, ptr, ptr, %struct.pg_compress_specification, i8, i32, i32, ptr, ptr, ptr, ptr, ptr, i32, ptr, i64, i64, i32, i32, i32, i32, ptr, ptr }
%struct.Archive = type { ptr, ptr, i32, ptr, i32, i8, i32, i32, i32, ptr, i32, i8, ptr, ptr, i8, i32, ptr }
%struct.sqlparseInfo = type { i32, i8, ptr }
%struct.pg_compress_specification = type { i32, i32, i32, i32, i8, ptr }
%struct._restoreOptions = type { i32, i32, i32, i32, i32, i32, ptr, ptr, i32, i32, i32, i32, i32, i32, i32, i32, i32, i32, ptr, i32, i32, i32, ptr, i32, i32, ptr, i32, ptr, i32, i32, i32, i32, i32, %struct.SimpleStringList, %struct.SimpleStringList, %struct.SimpleStringList, %struct.SimpleStringList, %struct.SimpleStringList, %struct.SimpleStringList, i32, %struct._connParams, i32, i32, %struct.pg_compress_specification, i32, i8, i32, ptr, i32, i32, i32, i8, i8 }
%struct.SimpleStringList = type { ptr, ptr }
%struct._connParams = type { ptr, ptr, ptr, ptr, i32, ptr }
%struct._tocEntry = type { ptr, ptr, %struct.CatalogId, i32, i32, i8, ptr, ptr, ptr, ptr, i8, ptr, ptr, ptr, ptr, ptr, ptr, i32, ptr, ptr, ptr, i64, i32, i8, ptr, ptr, i32, ptr, i32, ptr, i32 }
%struct.CatalogId = type { i32, i32 }

@.str.19 = private unnamed_addr constant [6 x i8] c"BEGIN\00", align 1
@.str.20 = private unnamed_addr constant [37 x i8] c"could not start database transaction\00", align 1
@.str.21 = private unnamed_addr constant [7 x i8] c"COMMIT\00", align 1
@.str.22 = private unnamed_addr constant [38 x i8] c"could not commit database transaction\00", align 1
@.str.23 = private unnamed_addr constant [9 x i8] c"%s%s%s;\0A\00", align 1
@.str.24 = private unnamed_addr constant [17 x i8] c"COMMIT;\0ABEGIN;\0A\0A\00", align 1
@.str.25 = private unnamed_addr constant [2 x i8] c"\0A\00", align 1
@.str.38 = private unnamed_addr constant [22 x i8] c"%s: %sCommand was: %s\00", align 1

; Function Attrs: nounwind uwtable
define internal void @ExecuteSqlCommand(ptr noundef %0, ptr noundef %1, ptr noundef %2) #0 {
  %4 = alloca ptr, align 8
  %5 = alloca ptr, align 8
  %6 = alloca ptr, align 8
  %7 = alloca ptr, align 8
  %8 = alloca ptr, align 8
  store ptr %0, ptr %4, align 8
  store ptr %1, ptr %5, align 8
  store ptr %2, ptr %6, align 8
  call void @llvm.lifetime.start.p0(i64 8, ptr %7) #9
  %9 = load ptr, ptr %4, align 8
  %10 = getelementptr inbounds nuw %struct._archiveHandle, ptr %9, i32 0, i32 42
  %11 = load ptr, ptr %10, align 8
  store ptr %11, ptr %7, align 8
  call void @llvm.lifetime.start.p0(i64 8, ptr %8) #9
  %12 = load ptr, ptr %7, align 8
  %13 = load ptr, ptr %5, align 8
  %14 = call ptr @PQexec(ptr noundef %12, ptr noundef %13)
  store ptr %14, ptr %8, align 8
  %15 = load ptr, ptr %8, align 8
  %16 = call i32 @PQresultStatus(ptr noundef %15)
  switch i32 %16, label %21 [
    i32 1, label %17
    i32 2, label %17
    i32 0, label %17
    i32 4, label %18
  ]

17:                                               ; preds = %3, %3, %3
  br label %27

18:                                               ; preds = %3
  %19 = load ptr, ptr %4, align 8
  %20 = getelementptr inbounds nuw %struct._archiveHandle, ptr %19, i32 0, i32 46
  store i8 1, ptr %20, align 8
  br label %27

21:                                               ; preds = %3
  %22 = load ptr, ptr %4, align 8
  %23 = load ptr, ptr %6, align 8
  %24 = load ptr, ptr %7, align 8
  %25 = call ptr @PQerrorMessage(ptr noundef %24)
  %26 = load ptr, ptr %5, align 8
  call void (ptr, ptr, ...) @warn_or_exit_horribly(ptr noundef %22, ptr noundef @.str.38, ptr noundef %23, ptr noundef %25, ptr noundef %26)
  br label %27

27:                                               ; preds = %21, %18, %17
  %28 = load ptr, ptr %8, align 8
  call void @PQclear(ptr noundef %28)
  call void @llvm.lifetime.end.p0(i64 8, ptr %8) #9
  call void @llvm.lifetime.end.p0(i64 8, ptr %7) #9
  ret void
}

; Function Attrs: nounwind uwtable
define dso_local void @StartTransaction(ptr noundef %0) #0 {
  %2 = alloca ptr, align 8
  %3 = alloca ptr, align 8
  store ptr %0, ptr %2, align 8
  call void @llvm.lifetime.start.p0(i64 8, ptr %3) #9
  %4 = load ptr, ptr %2, align 8
  store ptr %4, ptr %3, align 8
  %5 = load ptr, ptr %3, align 8
  call void @ExecuteSqlCommand(ptr noundef %5, ptr noundef @.str.19, ptr noundef @.str.20)
  call void @llvm.lifetime.end.p0(i64 8, ptr %3) #9
  ret void
}

; Function Attrs: nounwind uwtable
define dso_local void @CommitTransaction(ptr noundef %0) #0 {
  %2 = alloca ptr, align 8
  %3 = alloca ptr, align 8
  store ptr %0, ptr %2, align 8
  call void @llvm.lifetime.start.p0(i64 8, ptr %3) #9
  %4 = load ptr, ptr %2, align 8
  store ptr %4, ptr %3, align 8
  %5 = load ptr, ptr %3, align 8
  call void @ExecuteSqlCommand(ptr noundef %5, ptr noundef @.str.21, ptr noundef @.str.22)
  call void @llvm.lifetime.end.p0(i64 8, ptr %3) #9
  ret void
}

; Function Attrs: nounwind uwtable
define dso_local void @IssueCommandPerBlob(ptr noundef %0, ptr noundef %1, ptr noundef %2, ptr noundef %3) #0 {
  %5 = alloca ptr, align 8
  %6 = alloca ptr, align 8
  %7 = alloca ptr, align 8
  %8 = alloca ptr, align 8
  %9 = alloca ptr, align 8
  %10 = alloca ptr, align 8
  %11 = alloca ptr, align 8
  %12 = alloca ptr, align 8
  store ptr %0, ptr %5, align 8
  store ptr %1, ptr %6, align 8
  store ptr %2, ptr %7, align 8
  store ptr %3, ptr %8, align 8
  call void @llvm.lifetime.start.p0(i64 8, ptr %9) #9
  %13 = load ptr, ptr %6, align 8
  %14 = getelementptr inbounds nuw %struct._tocEntry, ptr %13, i32 0, i32 13
  %15 = load ptr, ptr %14, align 8
  %16 = call ptr @pg_strdup(ptr noundef %15)
  store ptr %16, ptr %9, align 8
  call void @llvm.lifetime.start.p0(i64 8, ptr %10) #9
  %17 = load ptr, ptr %5, align 8
  %18 = getelementptr inbounds nuw %struct._archiveHandle, ptr %17, i32 0, i32 0
  %19 = getelementptr inbounds nuw %struct.Archive, ptr %18, i32 0, i32 1
  %20 = load ptr, ptr %19, align 8
  store ptr %20, ptr %10, align 8
  call void @llvm.lifetime.start.p0(i64 8, ptr %11) #9
  call void @llvm.lifetime.start.p0(i64 8, ptr %12) #9
  %21 = load ptr, ptr %9, align 8
  store ptr %21, ptr %11, align 8
  br label %22

22:                                               ; preds = %67, %4
  %23 = load ptr, ptr %11, align 8
  %24 = call ptr @strchr(ptr noundef %23, i32 noundef 10) #12
  store ptr %24, ptr %12, align 8
  %25 = icmp ne ptr %24, null
  br i1 %25, label %26, label %69

26:                                               ; preds = %22
  %27 = load ptr, ptr %12, align 8
  %28 = getelementptr inbounds nuw i8, ptr %27, i32 1
  store ptr %28, ptr %12, align 8
  store i8 0, ptr %27, align 1
  %29 = load ptr, ptr %5, align 8
  %30 = load ptr, ptr %7, align 8
  %31 = load ptr, ptr %11, align 8
  %32 = load ptr, ptr %8, align 8
  %33 = call i32 (ptr, ptr, ...) @ahprintf(ptr noundef %29, ptr noundef @.str.23, ptr noundef %30, ptr noundef %31, ptr noundef %32)
  %34 = load ptr, ptr %10, align 8
  %35 = icmp ne ptr %34, null
  br i1 %35, label %36, label %67

36:                                               ; preds = %26
  %37 = load ptr, ptr %10, align 8
  %38 = getelementptr inbounds nuw %struct._restoreOptions, ptr %37, i32 0, i32 46
  %39 = load i32, ptr %38, align 8
  %40 = icmp sgt i32 %39, 0
  br i1 %40, label %41, label %67

41:                                               ; preds = %36
  %42 = load ptr, ptr %5, align 8
  %43 = getelementptr inbounds nuw %struct._archiveHandle, ptr %42, i32 0, i32 68
  %44 = load i32, ptr %43, align 8
  %45 = add i32 %44, 1
  store i32 %45, ptr %43, align 8
  %46 = load ptr, ptr %10, align 8
  %47 = getelementptr inbounds nuw %struct._restoreOptions, ptr %46, i32 0, i32 46
  %48 = load i32, ptr %47, align 8
  %49 = icmp sge i32 %45, %48
  br i1 %49, label %50, label %66

50:                                               ; preds = %41
  %51 = load ptr, ptr %5, align 8
  %52 = getelementptr inbounds nuw %struct._archiveHandle, ptr %51, i32 0, i32 42
  %53 = load ptr, ptr %52, align 8
  %54 = icmp ne ptr %53, null
  br i1 %54, label %55, label %60

55:                                               ; preds = %50
  %56 = load ptr, ptr %5, align 8
  %57 = getelementptr inbounds nuw %struct._archiveHandle, ptr %56, i32 0, i32 0
  call void @CommitTransaction(ptr noundef %57)
  %58 = load ptr, ptr %5, align 8
  %59 = getelementptr inbounds nuw %struct._archiveHandle, ptr %58, i32 0, i32 0
  call void @StartTransaction(ptr noundef %59)
  br label %63

60:                                               ; preds = %50
  %61 = load ptr, ptr %5, align 8
  %62 = call i32 (ptr, ptr, ...) @ahprintf(ptr noundef %61, ptr noundef @.str.24)
  br label %63

63:                                               ; preds = %60, %55
  %64 = load ptr, ptr %5, align 8
  %65 = getelementptr inbounds nuw %struct._archiveHandle, ptr %64, i32 0, i32 68
  store i32 0, ptr %65, align 8
  br label %66

66:                                               ; preds = %63, %41
  br label %67

67:                                               ; preds = %66, %36, %26
  %68 = load ptr, ptr %12, align 8
  store ptr %68, ptr %11, align 8
  br label %22, !llvm.loop !9

69:                                               ; preds = %22
  %70 = load ptr, ptr %5, align 8
  %71 = call i32 (ptr, ptr, ...) @ahprintf(ptr noundef %70, ptr noundef @.str.25)
  %72 = load ptr, ptr %9, align 8
  call void @pg_free(ptr noundef %72)
  call void @llvm.lifetime.end.p0(i64 8, ptr %12) #9
  call void @llvm.lifetime.end.p0(i64 8, ptr %11) #9
  call void @llvm.lifetime.end.p0(i64 8, ptr %10) #9
  call void @llvm.lifetime.end.p0(i64 8, ptr %9) #9
  ret void
}