; Function Attrs: nounwind uwtable
define dso_local void @IssueCommandPerBlob(ptr noundef %0, ptr noundef readonly captures(none) %1, ptr noundef %2, ptr noundef %3) local_unnamed_addr #0 {
  %5 = getelementptr inbounds nuw i8, ptr %1, i64 96
  %6 = load ptr, ptr %5, align 8
  %7 = tail call ptr @pg_strdup(ptr noundef %6) #11
  %8 = tail call ptr @strchr(ptr noundef nonnull dereferenceable(1) %7, i32 noundef 10) #14
  %.not26 = icmp eq ptr %8, null
  br i1 %.not26, label %._crit_edge, label %.lr.ph

.lr.ph:                                           ; preds = %4
  %9 = getelementptr inbounds nuw i8, ptr %0, i64 8
  %10 = load ptr, ptr %9, align 8
  %.fr = freeze ptr %10
  %.not23 = icmp eq ptr %.fr, null
  %11 = getelementptr inbounds nuw i8, ptr %.fr, i64 368
  %12 = getelementptr inbounds nuw i8, ptr %0, i64 632
  %13 = getelementptr inbounds nuw i8, ptr %0, i64 440
  %14 = getelementptr inbounds nuw i8, ptr %0, i64 464
  br i1 %.not23, label %.lr.ph.split.us, label %.lr.ph.split

.lr.ph.split.us:                                  ; preds = %.lr.ph, %.lr.ph.split.us
  %15 = phi ptr [ %18, %.lr.ph.split.us ], [ %8, %.lr.ph ]
  %.027.us = phi ptr [ %16, %.lr.ph.split.us ], [ %7, %.lr.ph ]
  %16 = getelementptr inbounds nuw i8, ptr %15, i64 1
  store i8 0, ptr %15, align 1
  %17 = tail call i32 (ptr, ptr, ...) @ahprintf(ptr noundef %0, ptr noundef nonnull @.str.23, ptr noundef %2, ptr noundef nonnull %.027.us, ptr noundef %3) #11
  %18 = tail call ptr @strchr(ptr noundef nonnull dereferenceable(1) %16, i32 noundef 10) #14
  %.not.us = icmp eq ptr %18, null
  br i1 %.not.us, label %._crit_edge, label %.lr.ph.split.us, !llvm.loop !9

.lr.ph.split:                                     ; preds = %.lr.ph, %45
  %19 = phi ptr [ %46, %45 ], [ %8, %.lr.ph ]
  %.027 = phi ptr [ %20, %45 ], [ %7, %.lr.ph ]
  %20 = getelementptr inbounds nuw i8, ptr %19, i64 1
  store i8 0, ptr %19, align 1
  %21 = tail call i32 (ptr, ptr, ...) @ahprintf(ptr noundef %0, ptr noundef nonnull @.str.23, ptr noundef %2, ptr noundef nonnull %.027, ptr noundef %3) #11
  %22 = load i32, ptr %11, align 8
  %23 = icmp sgt i32 %22, 0
  br i1 %23, label %24, label %45

24:                                               ; preds = %.lr.ph.split
  %25 = load i32, ptr %12, align 8
  %26 = add i32 %25, 1
  store i32 %26, ptr %12, align 8
  %27 = load i32, ptr %11, align 8
  %.not24 = icmp slt i32 %26, %27
  br i1 %.not24, label %45, label %28

28:                                               ; preds = %24
  %29 = load ptr, ptr %13, align 8
  %.not25 = icmp eq ptr %29, null
  br i1 %.not25, label %42, label %30

30:                                               ; preds = %28
  %31 = tail call ptr @PQexec(ptr noundef nonnull %29, ptr noundef nonnull @.str.21) #11
  %32 = tail call i32 @PQresultStatus(ptr noundef %31) #11
  switch i32 %32, label %34 [
    i32 1, label %CommitTransaction.exit
    i32 2, label %CommitTransaction.exit
    i32 0, label %CommitTransaction.exit
    i32 4, label %33
  ]

33:                                               ; preds = %30
  store i8 1, ptr %14, align 8
  br label %CommitTransaction.exit

34:                                               ; preds = %30
  %35 = tail call ptr @PQerrorMessage(ptr noundef nonnull %29) #11
  tail call void (ptr, ptr, ...) @warn_or_exit_horribly(ptr noundef nonnull %0, ptr noundef nonnull @.str.38, ptr noundef nonnull @.str.22, ptr noundef %35, ptr noundef nonnull @.str.21) #11
  br label %CommitTransaction.exit

CommitTransaction.exit:                           ; preds = %30, %30, %30, %33, %34
  tail call void @PQclear(ptr noundef %31) #11
  %36 = load ptr, ptr %13, align 8
  %37 = tail call ptr @PQexec(ptr noundef %36, ptr noundef nonnull @.str.19) #11
  %38 = tail call i32 @PQresultStatus(ptr noundef %37) #11
  switch i32 %38, label %40 [
    i32 1, label %StartTransaction.exit
    i32 2, label %StartTransaction.exit
    i32 0, label %StartTransaction.exit
    i32 4, label %39
  ]

39:                                               ; preds = %CommitTransaction.exit
  store i8 1, ptr %14, align 8
  br label %StartTransaction.exit

40:                                               ; preds = %CommitTransaction.exit
  %41 = tail call ptr @PQerrorMessage(ptr noundef %36) #11
  tail call void (ptr, ptr, ...) @warn_or_exit_horribly(ptr noundef nonnull %0, ptr noundef nonnull @.str.38, ptr noundef nonnull @.str.20, ptr noundef %41, ptr noundef nonnull @.str.19) #11
  br label %StartTransaction.exit

StartTransaction.exit:                            ; preds = %CommitTransaction.exit, %CommitTransaction.exit, %CommitTransaction.exit, %39, %40
  tail call void @PQclear(ptr noundef %37) #11
  br label %44

42:                                               ; preds = %28
  %43 = tail call i32 (ptr, ptr, ...) @ahprintf(ptr noundef nonnull %0, ptr noundef nonnull @.str.24) #11
  br label %44

44:                                               ; preds = %42, %StartTransaction.exit
  store i32 0, ptr %12, align 8
  br label %45

45:                                               ; preds = %24, %44, %.lr.ph.split
  %46 = tail call ptr @strchr(ptr noundef nonnull dereferenceable(1) %20, i32 noundef 10) #14
  %.not = icmp eq ptr %46, null
  br i1 %.not, label %._crit_edge, label %.lr.ph.split, !llvm.loop !9

._crit_edge:                                      ; preds = %45, %.lr.ph.split.us, %4
  %47 = tail call i32 (ptr, ptr, ...) @ahprintf(ptr noundef %0, ptr noundef nonnull @.str.25) #11
  tail call void @pg_free(ptr noundef nonnull %7) #11
  ret void
}